; Function Attrs: mustprogress null_pointer_is_valid sspstrong uwtable
define void @_ZN22BluetoothDevicesDialog8tapResetEPv(ptr noundef readonly captures(none) %0) #0 align 2 {
  %2 = getelementptr inbounds nuw i8, ptr %0, i64 16
  %3 = load ptr, ptr %2, align 8
  %4 = getelementptr inbounds nuw i8, ptr %3, i64 144
  %5 = load ptr, ptr %4, align 8
  %6 = getelementptr inbounds nuw i8, ptr %5, i64 56
  %7 = load ptr, ptr %6, align 8
  tail call void @_ZN11QTreeWidget5clearEv(ptr noundef align 8 dereferenceable_or_null(40) %7)
  ret void
}